target datalayout = "e-m:e-p270:32:32-p271:32:32-p272:64:64-i64:64-i128:128-f80:128-n8:16:32:64-S128"
target triple = "x86_64-pc-linux-gnu"

%struct._packet_info = type { ptr, ptr, i32, i32, %struct.nstime_t, %struct.nstime_t, %struct.nstime_t, i8, ptr, ptr, ptr, ptr, %struct._address, %struct._address, %struct._address, %struct._address, %struct._address, %struct._address, i32, ptr, i8, [3 x i8], %struct.anon, i32, i32, i32, i32, ptr, i8, ptr, ptr, i16, i16, i32, i32, i16, i32, i32, ptr, ptr, ptr, i8, i8, i16, i16, i16, i32, i16, i16, ptr, ptr, ptr, ptr, ptr, i32, i32 }
%struct.nstime_t = type { i64, i32 }
%struct._address = type { i32, i32, ptr, ptr }
%struct.anon = type { i8, [3 x i8] }

@g_ascii_table = external constant ptr, align 8

; Function Attrs: null_pointer_is_valid sspstrong uwtable
define internal i32 @get_framed_syslog_pdu_len(ptr noundef %0, ptr noundef %1, i32 noundef %2, ptr noundef %3) #0 {
  %5 = alloca i32, align 4
  %6 = alloca ptr, align 8
  %7 = alloca ptr, align 8
  %8 = alloca i32, align 4
  %9 = alloca ptr, align 8
  %10 = alloca i32, align 4
  %11 = alloca i8, align 1
  %12 = alloca i32, align 4
  %13 = alloca i32, align 4
  %14 = alloca i32, align 4
  %15 = alloca ptr, align 8
  %16 = alloca i32, align 4
  store ptr %0, ptr %6, align 8
  store ptr %1, ptr %7, align 8
  store i32 %2, ptr %8, align 4
  store ptr %3, ptr %9, align 8
  call void @llvm.lifetime.start.p0(i64 4, ptr %10) #6
  store i32 0, ptr %10, align 4
  br label %17

17:                                               ; preds = %55, %4
  %18 = load ptr, ptr %7, align 8
  %19 = load i32, ptr %8, align 4
  %20 = load i32, ptr %10, align 4
  %21 = add i32 %19, %20
  %22 = call zeroext i1 @tvb_bytes_exist(ptr noundef %18, i32 noundef %21, i32 noundef 1)
  br i1 %22, label %23, label %26

23:                                               ; preds = %17
  %24 = load i32, ptr %10, align 4
  %25 = icmp slt i32 %24, 5
  br label %26

26:                                               ; preds = %23, %17
  %27 = phi i1 [ false, %17 ], [ %25, %23 ]
  br i1 %27, label %28, label %56

28:                                               ; preds = %26
  call void @llvm.lifetime.start.p0(i64 1, ptr %11) #6
  %29 = load ptr, ptr %7, align 8
  %30 = load i32, ptr %8, align 4
  %31 = load i32, ptr %10, align 4
  %32 = add i32 %30, %31
  %33 = call zeroext i8 @tvb_get_uint8(ptr noundef %29, i32 noundef %32)
  store i8 %33, ptr %11, align 1
  %34 = load ptr, ptr @g_ascii_table, align 8
  %35 = load i8, ptr %11, align 1
  %36 = zext i8 %35 to i64
  %37 = getelementptr i16, ptr %34, i64 %36
  %38 = load i16, ptr %37, align 2
  %39 = zext i16 %38 to i32
  %40 = and i32 %39, 8
  %41 = icmp ne i32 %40, 0
  br i1 %41, label %42, label %49

42:                                               ; preds = %28
  %43 = load i32, ptr %10, align 4
  %44 = icmp eq i32 %43, 0
  br i1 %44, label %45, label %50

45:                                               ; preds = %42
  %46 = load i8, ptr %11, align 1
  %47 = zext i8 %46 to i32
  %48 = icmp eq i32 %47, 48
  br i1 %48, label %49, label %50

49:                                               ; preds = %45, %28
  store i32 3, ptr %12, align 4
  br label %53

50:                                               ; preds = %45, %42
  %51 = load i32, ptr %10, align 4
  %52 = add i32 %51, 1
  store i32 %52, ptr %10, align 4
  store i32 0, ptr %12, align 4
  br label %53

53:                                               ; preds = %50, %49
  call void @llvm.lifetime.end.p0(i64 1, ptr %11) #6
  %54 = load i32, ptr %12, align 4
  switch i32 %54, label %117 [
    i32 0, label %55
    i32 3, label %56
  ]

55:                                               ; preds = %53
  br label %17, !llvm.loop !8

56:                                               ; preds = %53, %26
  call void @llvm.lifetime.start.p0(i64 4, ptr %13) #6
  store i32 0, ptr %13, align 4
  call void @llvm.lifetime.start.p0(i64 4, ptr %14) #6
  store i32 1, ptr %14, align 4
  %57 = load i32, ptr %10, align 4
  %58 = icmp sgt i32 %57, 0
  br i1 %58, label %59, label %91

59:                                               ; preds = %56
  call void @llvm.lifetime.start.p0(i64 8, ptr %15) #6
  %60 = load ptr, ptr %6, align 8
  %61 = getelementptr inbounds nuw %struct._packet_info, ptr %60, i32 0, i32 51
  %62 = load ptr, ptr %61, align 8
  %63 = load ptr, ptr %7, align 8
  %64 = load i32, ptr %8, align 4
  %65 = load i32, ptr %10, align 4
  %66 = call ptr @tvb_get_string_enc(ptr noundef %62, ptr noundef %63, i32 noundef %64, i32 noundef %65, i32 noundef 0)
  store ptr %66, ptr %15, align 8
  call void @llvm.lifetime.start.p0(i64 4, ptr %16) #6
  %67 = load i32, ptr %10, align 4
  store i32 %67, ptr %16, align 4
  br label %68

68:                                               ; preds = %87, %59
  %69 = load i32, ptr %16, align 4
  %70 = icmp ugt i32 %69, 0
  br i1 %70, label %72, label %71

71:                                               ; preds = %68
  store i32 4, ptr %12, align 4
  call void @llvm.lifetime.end.p0(i64 4, ptr %16) #6
  br label %90

72:                                               ; preds = %68
  %73 = load ptr, ptr %15, align 8
  %74 = load i32, ptr %16, align 4
  %75 = sub i32 %74, 1
  %76 = zext i32 %75 to i64
  %77 = getelementptr i8, ptr %73, i64 %76
  %78 = load i8, ptr %77, align 1
  %79 = zext i8 %78 to i32
  %80 = sub i32 %79, 48
  %81 = load i32, ptr %14, align 4
  %82 = mul i32 %80, %81
  %83 = load i32, ptr %13, align 4
  %84 = add i32 %83, %82
  store i32 %84, ptr %13, align 4
  %85 = load i32, ptr %14, align 4
  %86 = mul i32 %85, 10
  store i32 %86, ptr %14, align 4
  br label %87

87:                                               ; preds = %72
  %88 = load i32, ptr %16, align 4
  %89 = add i32 %88, -1
  store i32 %89, ptr %16, align 4
  br label %68, !llvm.loop !9

90:                                               ; preds = %71
  call void @llvm.lifetime.end.p0(i64 8, ptr %15) #6
  br label %91

91:                                               ; preds = %90, %56
  %92 = load i32, ptr %13, align 4
  %93 = icmp ugt i32 %92, 0
  br i1 %93, label %94, label %114

94:                                               ; preds = %91
  %95 = load ptr, ptr %7, align 8
  %96 = load i32, ptr %8, align 4
  %97 = load i32, ptr %10, align 4
  %98 = add i32 %97, 1
  %99 = call zeroext i1 @tvb_bytes_exist(ptr noundef %95, i32 noundef %96, i32 noundef %98)
  br i1 %99, label %100, label %114

100:                                              ; preds = %94
  %101 = load ptr, ptr %7, align 8
  %102 = load i32, ptr %8, align 4
  %103 = load i32, ptr %10, align 4
  %104 = add i32 %102, %103
  %105 = call zeroext i8 @tvb_get_uint8(ptr noundef %101, i32 noundef %104)
  %106 = zext i8 %105 to i32
  %107 = icmp eq i32 %106, 32
  br i1 %107, label %108, label %113

108:                                              ; preds = %100
  %109 = load i32, ptr %13, align 4
  %110 = add i32 %109, 1
  %111 = load i32, ptr %10, align 4
  %112 = add i32 %110, %111
  store i32 %112, ptr %5, align 4
  store i32 1, ptr %12, align 4
  br label %115

113:                                              ; preds = %100
  br label %114

114:                                              ; preds = %113, %94, %91
  store i32 0, ptr %5, align 4
  store i32 1, ptr %12, align 4
  br label %115

115:                                              ; preds = %114, %108
  call void @llvm.lifetime.end.p0(i64 4, ptr %14) #6
  call void @llvm.lifetime.end.p0(i64 4, ptr %13) #6
  call void @llvm.lifetime.end.p0(i64 4, ptr %10) #6
  %116 = load i32, ptr %5, align 4
  ret i32 %116

117:                                              ; preds = %53
  unreachable
}