; Function Attrs: null_pointer_is_valid sspstrong uwtable
define internal i32 @get_framed_syslog_pdu_len(ptr noundef readonly captures(none) %0, ptr noundef %1, i32 noundef %2, ptr readnone captures(none) %3) #0 {
  %5 = load ptr, ptr @g_ascii_table, align 8
  br label %6

6:                                                ; preds = %17, %4
  %indvars.iv = phi i64 [ %indvars.iv.next, %17 ], [ 0, %4 ]
  %.040 = phi i32 [ %20, %17 ], [ 0, %4 ]
  %7 = add i32 %.040, %2
  %8 = tail call zeroext i1 @tvb_bytes_exist(ptr noundef %1, i32 noundef %7, i32 noundef 1)
  %9 = icmp samesign ult i32 %.040, 5
  %10 = and i1 %8, %9
  br i1 %10, label %11, label %.thread

11:                                               ; preds = %6
  %12 = tail call zeroext i8 @tvb_get_uint8(ptr noundef %1, i32 noundef %7)
  %13 = zext i8 %12 to i64
  %14 = getelementptr i16, ptr %5, i64 %13
  %15 = load i16, ptr %14, align 2
  %16 = and i16 %15, 8
  %.not = icmp eq i16 %16, 0
  br i1 %.not, label %.thread, label %17

17:                                               ; preds = %11
  %18 = icmp eq i32 %.040, 0
  %19 = icmp eq i8 %12, 48
  %or.cond = and i1 %18, %19
  %20 = add nuw nsw i32 %.040, 1
  %indvars.iv.next = add nuw nsw i64 %indvars.iv, 1
  br i1 %or.cond, label %.thread48, label %6

.thread:                                          ; preds = %11, %6
  %.not51 = icmp eq i32 %.040, 0
  br i1 %.not51, label %.thread48, label %21

21:                                               ; preds = %.thread
  %22 = getelementptr inbounds nuw i8, ptr %0, i64 408
  %23 = load ptr, ptr %22, align 8
  %24 = tail call ptr @tvb_get_string_enc(ptr noundef %23, ptr noundef %1, i32 noundef %2, i32 noundef %.040, i32 noundef 0)
  %invariant.gep = getelementptr i8, ptr %24, i64 -1
  br label %25

25:                                               ; preds = %21, %25
  %indvars.iv55 = phi i64 [ %indvars.iv, %21 ], [ %indvars.iv.next56, %25 ]
  %.03753 = phi i32 [ 1, %21 ], [ %31, %25 ]
  %.152 = phi i32 [ 0, %21 ], [ %30, %25 ]
  %gep = getelementptr i8, ptr %invariant.gep, i64 %indvars.iv55
  %26 = load i8, ptr %gep, align 1
  %27 = zext i8 %26 to i32
  %28 = add nsw i32 %27, -48
  %29 = mul i32 %28, %.03753
  %30 = add i32 %29, %.152
  %31 = mul i32 %.03753, 10
  %indvars.iv.next56 = add nsw i64 %indvars.iv55, -1
  %32 = icmp eq i64 %indvars.iv.next56, 0
  br i1 %32, label %33, label %25, !llvm.loop !9

33:                                               ; preds = %25
  %.not43 = icmp eq i32 %30, 0
  br i1 %.not43, label %.thread48, label %34

34:                                               ; preds = %33
  %35 = add nuw nsw i32 %.040, 1
  %36 = tail call zeroext i1 @tvb_bytes_exist(ptr noundef %1, i32 noundef %2, i32 noundef %35)
  br i1 %36, label %37, label %.thread48

37:                                               ; preds = %34
  %38 = add i32 %.040, %2
  %39 = tail call zeroext i8 @tvb_get_uint8(ptr noundef %1, i32 noundef %38)
  %40 = icmp eq i8 %39, 32
  %41 = add i32 %35, %30
  %spec.select = select i1 %40, i32 %41, i32 0
  br label %.thread48

.thread48:                                        ; preds = %17, %37, %.thread, %33, %34
  %.036 = phi i32 [ 0, %34 ], [ 0, %33 ], [ 0, %.thread ], [ %spec.select, %37 ], [ 0, %17 ]
  ret i32 %.036
}